target datalayout = "e-m:e-p270:32:32-p271:32:32-p272:64:64-i64:64-i128:128-f80:128-n8:16:32:64-S128"
target triple = "x86_64-pc-linux-gnu"

%"class.LIEF::MachO::RPathCommand" = type { %"class.LIEF::MachO::LoadCommand", %"class.std::__cxx11::basic_string" }
%"class.LIEF::MachO::LoadCommand" = type { %"class.LIEF::Object", %"class.std::vector", i64, i32, i64 }
%"class.LIEF::Object" = type { ptr }
%"class.std::vector" = type { %"struct.std::_Vector_base" }
%"struct.std::_Vector_base" = type { %"struct.std::_Vector_base<unsigned char, std::allocator<unsigned char>>::_Vector_impl" }
%"struct.std::_Vector_base<unsigned char, std::allocator<unsigned char>>::_Vector_impl" = type { %"struct.std::_Vector_base<unsigned char, std::allocator<unsigned char>>::_Vector_impl_data" }
%"struct.std::_Vector_base<unsigned char, std::allocator<unsigned char>>::_Vector_impl_data" = type { ptr, ptr, ptr }
%"class.std::__cxx11::basic_string" = type { %"struct.std::__cxx11::basic_string<char>::_Alloc_hider", i64, %union.anon }
%"struct.std::__cxx11::basic_string<char>::_Alloc_hider" = type { ptr }
%union.anon = type { i64, [8 x i8] }
%"struct.std::_Setw" = type { i32 }

@.str = private unnamed_addr constant [7 x i8] c"Path: \00", align 1

; Function Attrs: mustprogress nounwind uwtable
define noundef nonnull align 8 dereferenceable(32) ptr @_ZNK4LIEF5MachO12RPathCommand4pathB5cxx11Ev(ptr noundef nonnull align 8 dereferenceable(88) %0) #3 align 2 {
  %2 = alloca ptr, align 8
  store ptr %0, ptr %2, align 8
  %3 = load ptr, ptr %2, align 8
  %4 = getelementptr inbounds %"class.LIEF::MachO::RPathCommand", ptr %3, i32 0, i32 1
  ret ptr %4
}

; Function Attrs: mustprogress nounwind uwtable
define linkonce_odr i32 @_ZSt4setwi(i32 noundef %0) #3 comdat {
  %2 = alloca %"struct.std::_Setw", align 4
  %3 = alloca i32, align 4
  store i32 %0, ptr %3, align 4
  %4 = getelementptr inbounds %"struct.std::_Setw", ptr %2, i32 0, i32 0
  %5 = load i32, ptr %3, align 4
  store i32 %5, ptr %4, align 4
  %6 = getelementptr inbounds %"struct.std::_Setw", ptr %2, i32 0, i32 0
  %7 = load i32, ptr %6, align 4
  ret i32 %7
}

; Function Attrs: mustprogress uwtable
define noundef nonnull align 8 dereferenceable(8) ptr @_ZNK4LIEF5MachO12RPathCommand5printERSo(ptr noundef nonnull align 8 dereferenceable(88) %0, ptr noundef nonnull align 8 dereferenceable(8) %1) unnamed_addr #0 align 2 {
  %3 = alloca ptr, align 8
  %4 = alloca ptr, align 8
  %5 = alloca %"struct.std::_Setw", align 4
  store ptr %0, ptr %3, align 8
  store ptr %1, ptr %4, align 8
  %6 = load ptr, ptr %3, align 8
  %7 = load ptr, ptr %4, align 8
  %8 = call noundef nonnull align 8 dereferenceable(8) ptr @_ZNK4LIEF5MachO11LoadCommand5printERSo(ptr noundef nonnull align 8 dereferenceable(56) %6, ptr noundef nonnull align 8 dereferenceable(8) %7)
  %9 = load ptr, ptr %4, align 8
  %10 = call noundef nonnull align 8 dereferenceable(8) ptr @_ZNSolsEPFRSt8ios_baseS0_E(ptr noundef nonnull align 8 dereferenceable(8) %9, ptr noundef @_ZSt4leftRSt8ios_base)
  %11 = call i32 @_ZSt4setwi(i32 noundef 10)
  %12 = getelementptr inbounds %"struct.std::_Setw", ptr %5, i32 0, i32 0
  store i32 %11, ptr %12, align 4
  %13 = getelementptr inbounds %"struct.std::_Setw", ptr %5, i32 0, i32 0
  %14 = load i32, ptr %13, align 4
  %15 = call noundef nonnull align 8 dereferenceable(8) ptr @_ZStlsIcSt11char_traitsIcEERSt13basic_ostreamIT_T0_ES6_St5_Setw(ptr noundef nonnull align 8 dereferenceable(8) %10, i32 %14)
  %16 = call noundef nonnull align 8 dereferenceable(8) ptr @_ZStlsISt11char_traitsIcEERSt13basic_ostreamIcT_ES5_PKc(ptr noundef nonnull align 8 dereferenceable(8) %15, ptr noundef @.str)
  %17 = call noundef nonnull align 8 dereferenceable(32) ptr @_ZNK4LIEF5MachO12RPathCommand4pathB5cxx11Ev(ptr noundef nonnull align 8 dereferenceable(88) %6)
  %18 = call noundef nonnull align 8 dereferenceable(8) ptr @_ZStlsIcSt11char_traitsIcESaIcEERSt13basic_ostreamIT_T0_ES7_RKNSt7__cxx1112basic_stringIS4_S5_T1_EE(ptr noundef nonnull align 8 dereferenceable(8) %16, ptr noundef nonnull align 8 dereferenceable(32) %17)
  %19 = load ptr, ptr %4, align 8
  ret ptr %19
}